target datalayout = "e-m:e-p270:32:32-p271:32:32-p272:64:64-i64:64-i128:128-f80:128-n8:16:32:64-S128"
target triple = "x86_64-unknown-linux-gnu"

%"class.cvc5::internal::EnvObj" = type { ptr, ptr }
%"class.std::__cxx11::basic_string" = type { %"struct.std::__cxx11::basic_string<char>::_Alloc_hider", i64, %union.anon }
%"struct.std::__cxx11::basic_string<char>::_Alloc_hider" = type { ptr }
%union.anon = type { i64, [8 x i8] }
%"struct.cvc5::internal::theory::EeSetupInfo" = type <{ ptr, %"class.std::__cxx11::basic_string", i8, i8, i8, i8, i8, [3 x i8] }>

; Function Attrs: mustprogress uwtable
define hidden noundef ptr @_ZN4cvc58internal6theory15EqEngineManager22allocateEqualityEngineERNS1_11EeSetupInfoEPNS_7context7ContextE(ptr noundef nonnull align 8 dereferenceable(80) %this, ptr noundef nonnull align 8 dereferenceable(45) %esi, ptr noundef %c) #4 align 2 personality ptr @__gxx_personality_v0 {
entry:
  %retval = alloca ptr, align 8
  %this.addr = alloca ptr, align 8
  %esi.addr = alloca ptr, align 8
  %c.addr = alloca ptr, align 8
  %agg.tmp = alloca %"class.std::__cxx11::basic_string", align 8
  %exn.slot = alloca ptr, align 8
  %ehselector.slot = alloca i32, align 4
  %cleanup.isactive = alloca i1, align 1
  %agg.tmp7 = alloca %"class.std::__cxx11::basic_string", align 8
  %cleanup.isactive15 = alloca i1, align 1
  store ptr %this, ptr %this.addr, align 8
  store ptr %esi, ptr %esi.addr, align 8
  store ptr %c, ptr %c.addr, align 8
  %this1 = load ptr, ptr %this.addr, align 8
  %0 = load ptr, ptr %esi.addr, align 8
  %d_notify = getelementptr inbounds %"struct.cvc5::internal::theory::EeSetupInfo", ptr %0, i32 0, i32 0
  %1 = load ptr, ptr %d_notify, align 8
  %cmp = icmp ne ptr %1, null
  br i1 %cmp, label %if.then, label %if.end

if.then:                                          ; preds = %entry
  %call = call noalias noundef nonnull ptr @_Znwm(i64 noundef 1784) #11
  store i1 true, ptr %cleanup.isactive, align 1
  %d_env = getelementptr inbounds %"class.cvc5::internal::EnvObj", ptr %this1, i32 0, i32 1
  %2 = load ptr, ptr %d_env, align 8
  %3 = load ptr, ptr %c.addr, align 8
  %4 = load ptr, ptr %esi.addr, align 8
  %d_notify2 = getelementptr inbounds %"struct.cvc5::internal::theory::EeSetupInfo", ptr %4, i32 0, i32 0
  %5 = load ptr, ptr %d_notify2, align 8
  %6 = load ptr, ptr %esi.addr, align 8
  %d_name = getelementptr inbounds %"struct.cvc5::internal::theory::EeSetupInfo", ptr %6, i32 0, i32 1
  invoke void @_ZNSt7__cxx1112basic_stringIcSt11char_traitsIcESaIcEEC1ERKS4_(ptr noundef nonnull align 8 dereferenceable(32) %agg.tmp, ptr noundef nonnull align 8 dereferenceable(32) %d_name)
          to label %invoke.cont unwind label %lpad

invoke.cont:                                      ; preds = %if.then
  %7 = load ptr, ptr %esi.addr, align 8
  %d_constantsAreTriggers = getelementptr inbounds %"struct.cvc5::internal::theory::EeSetupInfo", ptr %7, i32 0, i32 2
  %8 = load i8, ptr %d_constantsAreTriggers, align 8
  %tobool = trunc i8 %8 to i1
  invoke void @_ZN4cvc58internal6theory2eq14EqualityEngineC1ERNS0_3EnvEPNS_7context7ContextERNS2_20EqualityEngineNotifyENSt7__cxx1112basic_stringIcSt11char_traitsIcESaIcEEEbb(ptr noundef nonnull align 8 dereferenceable(1784) %call, ptr noundef nonnull align 8 dereferenceable(576) %2, ptr noundef %3, ptr noundef nonnull align 8 dereferenceable(8) %5, ptr noundef %agg.tmp, i1 noundef zeroext %tobool, i1 noundef zeroext true)
          to label %invoke.cont4 unwind label %lpad3

invoke.cont4:                                     ; preds = %invoke.cont
  store i1 false, ptr %cleanup.isactive, align 1
  store ptr %call, ptr %retval, align 8
  call void @_ZNSt7__cxx1112basic_stringIcSt11char_traitsIcESaIcEED1Ev(ptr noundef nonnull align 8 dereferenceable(32) %agg.tmp) #3
  br label %return

lpad:                                             ; preds = %if.then
  %9 = landingpad { ptr, i32 }
          cleanup
  %10 = extractvalue { ptr, i32 } %9, 0
  store ptr %10, ptr %exn.slot, align 8
  %11 = extractvalue { ptr, i32 } %9, 1
  store i32 %11, ptr %ehselector.slot, align 4
  br label %ehcleanup

lpad3:                                            ; preds = %invoke.cont
  %12 = landingpad { ptr, i32 }
          cleanup
  %13 = extractvalue { ptr, i32 } %12, 0
  store ptr %13, ptr %exn.slot, align 8
  %14 = extractvalue { ptr, i32 } %12, 1
  store i32 %14, ptr %ehselector.slot, align 4
  call void @_ZNSt7__cxx1112basic_stringIcSt11char_traitsIcESaIcEED1Ev(ptr noundef nonnull align 8 dereferenceable(32) %agg.tmp) #3
  br label %ehcleanup

ehcleanup:                                        ; preds = %lpad3, %lpad
  %cleanup.is_active = load i1, ptr %cleanup.isactive, align 1
  br i1 %cleanup.is_active, label %cleanup.action, label %cleanup.done

cleanup.action:                                   ; preds = %ehcleanup
  call void @_ZdlPv(ptr noundef %call) #12
  br label %cleanup.done

cleanup.done:                                     ; preds = %cleanup.action, %ehcleanup
  br label %eh.resume

if.end:                                           ; preds = %entry
  %call5 = call noalias noundef nonnull ptr @_Znwm(i64 noundef 1784) #11
  store i1 true, ptr %cleanup.isactive15, align 1
  %d_env6 = getelementptr inbounds %"class.cvc5::internal::EnvObj", ptr %this1, i32 0, i32 1
  %15 = load ptr, ptr %d_env6, align 8
  %16 = load ptr, ptr %c.addr, align 8
  %17 = load ptr, ptr %esi.addr, align 8
  %d_name8 = getelementptr inbounds %"struct.cvc5::internal::theory::EeSetupInfo", ptr %17, i32 0, i32 1
  invoke void @_ZNSt7__cxx1112basic_stringIcSt11char_traitsIcESaIcEEC1ERKS4_(ptr noundef nonnull align 8 dereferenceable(32) %agg.tmp7, ptr noundef nonnull align 8 dereferenceable(32) %d_name8)
          to label %invoke.cont10 unwind label %lpad9

invoke.cont10:                                    ; preds = %if.end
  %18 = load ptr, ptr %esi.addr, align 8
  %d_constantsAreTriggers11 = getelementptr inbounds %"struct.cvc5::internal::theory::EeSetupInfo", ptr %18, i32 0, i32 2
  %19 = load i8, ptr %d_constantsAreTriggers11, align 8
  %tobool12 = trunc i8 %19 to i1
  invoke void @_ZN4cvc58internal6theory2eq14EqualityEngineC1ERNS0_3EnvEPNS_7context7ContextENSt7__cxx1112basic_stringIcSt11char_traitsIcESaIcEEEbb(ptr noundef nonnull align 8 dereferenceable(1784) %call5, ptr noundef nonnull align 8 dereferenceable(576) %15, ptr noundef %16, ptr noundef %agg.tmp7, i1 noundef zeroext %tobool12, i1 noundef zeroext true)
          to label %invoke.cont14 unwind label %lpad13

invoke.cont14:                                    ; preds = %invoke.cont10
  store i1 false, ptr %cleanup.isactive15, align 1
  store ptr %call5, ptr %retval, align 8
  call void @_ZNSt7__cxx1112basic_stringIcSt11char_traitsIcESaIcEED1Ev(ptr noundef nonnull align 8 dereferenceable(32) %agg.tmp7) #3
  br label %return

lpad9:                                            ; preds = %if.end
  %20 = landingpad { ptr, i32 }
          cleanup
  %21 = extractvalue { ptr, i32 } %20, 0
  store ptr %21, ptr %exn.slot, align 8
  %22 = extractvalue { ptr, i32 } %20, 1
  store i32 %22, ptr %ehselector.slot, align 4
  br label %ehcleanup17

lpad13:                                           ; preds = %invoke.cont10
  %23 = landingpad { ptr, i32 }
          cleanup
  %24 = extractvalue { ptr, i32 } %23, 0
  store ptr %24, ptr %exn.slot, align 8
  %25 = extractvalue { ptr, i32 } %23, 1
  store i32 %25, ptr %ehselector.slot, align 4
  call void @_ZNSt7__cxx1112basic_stringIcSt11char_traitsIcESaIcEED1Ev(ptr noundef nonnull align 8 dereferenceable(32) %agg.tmp7) #3
  br label %ehcleanup17

ehcleanup17:                                      ; preds = %lpad13, %lpad9
  %cleanup.is_active18 = load i1, ptr %cleanup.isactive15, align 1
  br i1 %cleanup.is_active18, label %cleanup.action19, label %cleanup.done20

cleanup.action19:                                 ; preds = %ehcleanup17
  call void @_ZdlPv(ptr noundef %call5) #12
  br label %cleanup.done20

cleanup.done20:                                   ; preds = %cleanup.action19, %ehcleanup17
  br label %eh.resume

return:                                           ; preds = %invoke.cont14, %invoke.cont4
  %26 = load ptr, ptr %retval, align 8
  ret ptr %26

eh.resume:                                        ; preds = %cleanup.done20, %cleanup.done
  %exn = load ptr, ptr %exn.slot, align 8
  %sel = load i32, ptr %ehselector.slot, align 4
  %lpad.val = insertvalue { ptr, i32 } poison, ptr %exn, 0
  %lpad.val21 = insertvalue { ptr, i32 } %lpad.val, i32 %sel, 1
  resume { ptr, i32 } %lpad.val21
}