; Function Attrs: mustprogress uwtable
define hidden noundef nonnull ptr @_ZN4cvc58internal6theory15EqEngineManager22allocateEqualityEngineERNS1_11EeSetupInfoEPNS_7context7ContextE(ptr nocapture noundef nonnull readonly align 8 dereferenceable(80) %this, ptr noundef nonnull align 8 dereferenceable(45) %esi, ptr noundef %c) local_unnamed_addr #3 align 2 personality ptr @__gxx_personality_v0 {
entry:
  %agg.tmp = alloca %"class.std::__cxx11::basic_string", align 8
  %agg.tmp7 = alloca %"class.std::__cxx11::basic_string", align 8
  %0 = load ptr, ptr %esi, align 8
  %cmp.not = icmp eq ptr %0, null
  %call5 = tail call noalias noundef nonnull dereferenceable(1784) ptr @_Znwm(i64 noundef 1784) #11
  %d_env6 = getelementptr inbounds i8, ptr %this, i64 8
  %1 = load ptr, ptr %d_env6, align 8
  %d_name8 = getelementptr inbounds i8, ptr %esi, i64 8
  br i1 %cmp.not, label %if.end, label %if.then

if.then:                                          ; preds = %entry
  invoke void @_ZNSt7__cxx1112basic_stringIcSt11char_traitsIcESaIcEEC1ERKS4_(ptr noundef nonnull align 8 dereferenceable(32) %agg.tmp, ptr noundef nonnull align 8 dereferenceable(32) %d_name8)
          to label %invoke.cont unwind label %lpad

invoke.cont:                                      ; preds = %if.then
  %d_constantsAreTriggers = getelementptr inbounds i8, ptr %esi, i64 40
  %2 = load i8, ptr %d_constantsAreTriggers, align 8
  %3 = and i8 %2, 1
  %tobool = icmp ne i8 %3, 0
  invoke void @_ZN4cvc58internal6theory2eq14EqualityEngineC1ERNS0_3EnvEPNS_7context7ContextERNS2_20EqualityEngineNotifyENSt7__cxx1112basic_stringIcSt11char_traitsIcESaIcEEEbb(ptr noundef nonnull align 8 dereferenceable(1784) %call5, ptr noundef nonnull align 8 dereferenceable(576) %1, ptr noundef %c, ptr noundef nonnull align 8 dereferenceable(8) %0, ptr noundef nonnull %agg.tmp, i1 noundef zeroext %tobool, i1 noundef zeroext true)
          to label %return unwind label %lpad3

lpad:                                             ; preds = %if.then
  %4 = landingpad { ptr, i32 }
          cleanup
  br label %eh.resume

lpad3:                                            ; preds = %invoke.cont
  %5 = landingpad { ptr, i32 }
          cleanup
  call void @_ZNSt7__cxx1112basic_stringIcSt11char_traitsIcESaIcEED1Ev(ptr noundef nonnull align 8 dereferenceable(32) %agg.tmp) #12
  br label %eh.resume

if.end:                                           ; preds = %entry
  invoke void @_ZNSt7__cxx1112basic_stringIcSt11char_traitsIcESaIcEEC1ERKS4_(ptr noundef nonnull align 8 dereferenceable(32) %agg.tmp7, ptr noundef nonnull align 8 dereferenceable(32) %d_name8)
          to label %invoke.cont10 unwind label %lpad9

invoke.cont10:                                    ; preds = %if.end
  %d_constantsAreTriggers11 = getelementptr inbounds i8, ptr %esi, i64 40
  %6 = load i8, ptr %d_constantsAreTriggers11, align 8
  %7 = and i8 %6, 1
  %tobool12 = icmp ne i8 %7, 0
  invoke void @_ZN4cvc58internal6theory2eq14EqualityEngineC1ERNS0_3EnvEPNS_7context7ContextENSt7__cxx1112basic_stringIcSt11char_traitsIcESaIcEEEbb(ptr noundef nonnull align 8 dereferenceable(1784) %call5, ptr noundef nonnull align 8 dereferenceable(576) %1, ptr noundef %c, ptr noundef nonnull %agg.tmp7, i1 noundef zeroext %tobool12, i1 noundef zeroext true)
          to label %return unwind label %lpad13

lpad9:                                            ; preds = %if.end
  %8 = landingpad { ptr, i32 }
          cleanup
  br label %eh.resume

lpad13:                                           ; preds = %invoke.cont10
  %9 = landingpad { ptr, i32 }
          cleanup
  call void @_ZNSt7__cxx1112basic_stringIcSt11char_traitsIcESaIcEED1Ev(ptr noundef nonnull align 8 dereferenceable(32) %agg.tmp7) #12
  br label %eh.resume

return:                                           ; preds = %invoke.cont10, %invoke.cont
  %agg.tmp7.sink = phi ptr [ %agg.tmp, %invoke.cont ], [ %agg.tmp7, %invoke.cont10 ]
  call void @_ZNSt7__cxx1112basic_stringIcSt11char_traitsIcESaIcEED1Ev(ptr noundef nonnull align 8 dereferenceable(32) %agg.tmp7.sink) #12
  ret ptr %call5

eh.resume:                                        ; preds = %lpad13, %lpad9, %lpad3, %lpad
  %.pn8.pn = phi { ptr, i32 } [ %5, %lpad3 ], [ %4, %lpad ], [ %9, %lpad13 ], [ %8, %lpad9 ]
  call void @_ZdlPv(ptr noundef nonnull %call5) #13
  resume { ptr, i32 } %.pn8.pn
}